target datalayout = "e-m:e-p270:32:32-p271:32:32-p272:64:64-i64:64-i128:128-f80:128-n8:16:32:64-S128"
target triple = "x86_64-pc-linux-gnu"

%struct.DdTlcInfo = type { ptr, ptr, i32 }

; Function Attrs: nounwind uwtable
define void @Cudd_tlcInfoFree(ptr noundef %0) #0 {
  %2 = alloca ptr, align 8
  store ptr %0, ptr %2, align 8
  %3 = load ptr, ptr %2, align 8
  %4 = getelementptr inbounds %struct.DdTlcInfo, ptr %3, i32 0, i32 0
  %5 = load ptr, ptr %4, align 8
  %6 = icmp ne ptr %5, null
  br i1 %6, label %7, label %20

7:                                                ; preds = %1
  %8 = load ptr, ptr %2, align 8
  %9 = getelementptr inbounds %struct.DdTlcInfo, ptr %8, i32 0, i32 0
  %10 = load ptr, ptr %9, align 8
  %11 = icmp ne ptr %10, null
  br i1 %11, label %12, label %18

12:                                               ; preds = %7
  %13 = load ptr, ptr %2, align 8
  %14 = getelementptr inbounds %struct.DdTlcInfo, ptr %13, i32 0, i32 0
  %15 = load ptr, ptr %14, align 8
  call void @free(ptr noundef %15) #6
  %16 = load ptr, ptr %2, align 8
  %17 = getelementptr inbounds %struct.DdTlcInfo, ptr %16, i32 0, i32 0
  store ptr null, ptr %17, align 8
  br label %19

18:                                               ; preds = %7
  br label %19

19:                                               ; preds = %18, %12
  br label %20

20:                                               ; preds = %19, %1
  %21 = load ptr, ptr %2, align 8
  %22 = getelementptr inbounds %struct.DdTlcInfo, ptr %21, i32 0, i32 1
  %23 = load ptr, ptr %22, align 8
  %24 = icmp ne ptr %23, null
  br i1 %24, label %25, label %38

25:                                               ; preds = %20
  %26 = load ptr, ptr %2, align 8
  %27 = getelementptr inbounds %struct.DdTlcInfo, ptr %26, i32 0, i32 1
  %28 = load ptr, ptr %27, align 8
  %29 = icmp ne ptr %28, null
  br i1 %29, label %30, label %36

30:                                               ; preds = %25
  %31 = load ptr, ptr %2, align 8
  %32 = getelementptr inbounds %struct.DdTlcInfo, ptr %31, i32 0, i32 1
  %33 = load ptr, ptr %32, align 8
  call void @free(ptr noundef %33) #6
  %34 = load ptr, ptr %2, align 8
  %35 = getelementptr inbounds %struct.DdTlcInfo, ptr %34, i32 0, i32 1
  store ptr null, ptr %35, align 8
  br label %37

36:                                               ; preds = %25
  br label %37

37:                                               ; preds = %36, %30
  br label %38

38:                                               ; preds = %37, %20
  %39 = load ptr, ptr %2, align 8
  %40 = icmp ne ptr %39, null
  br i1 %40, label %41, label %43

41:                                               ; preds = %38
  %42 = load ptr, ptr %2, align 8
  call void @free(ptr noundef %42) #6
  store ptr null, ptr %2, align 8
  br label %44

43:                                               ; preds = %38
  br label %44

44:                                               ; preds = %43, %41
  ret void
}

; Function Attrs: nounwind uwtable
define internal void @bitVectorSet(ptr noundef %0, i32 noundef %1, i16 noundef signext %2) #0 {
  %4 = alloca ptr, align 8
  %5 = alloca i32, align 4
  %6 = alloca i16, align 2
  %7 = alloca i32, align 4
  %8 = alloca i32, align 4
  store ptr %0, ptr %4, align 8
  store i32 %1, ptr %5, align 4
  store i16 %2, ptr %6, align 2
  %9 = load i32, ptr %5, align 4
  %10 = ashr i32 %9, 6
  store i32 %10, ptr %7, align 4
  %11 = load i32, ptr %5, align 4
  %12 = and i32 %11, 63
  store i32 %12, ptr %8, align 4
  %13 = load i32, ptr %8, align 4
  %14 = zext i32 %13 to i64
  %15 = shl i64 1, %14
  %16 = xor i64 %15, -1
  %17 = load ptr, ptr %4, align 8
  %18 = load i32, ptr %7, align 4
  %19 = sext i32 %18 to i64
  %20 = getelementptr inbounds i64, ptr %17, i64 %19
  %21 = load i64, ptr %20, align 8
  %22 = and i64 %21, %16
  store i64 %22, ptr %20, align 8
  %23 = load i16, ptr %6, align 2
  %24 = sext i16 %23 to i64
  %25 = load i32, ptr %8, align 4
  %26 = zext i32 %25 to i64
  %27 = shl i64 %24, %26
  %28 = load ptr, ptr %4, align 8
  %29 = load i32, ptr %7, align 4
  %30 = sext i32 %29 to i64
  %31 = getelementptr inbounds i64, ptr %28, i64 %30
  %32 = load i64, ptr %31, align 8
  %33 = or i64 %32, %27
  store i64 %33, ptr %31, align 8
  ret void
}

; Function Attrs: nounwind uwtable
define internal signext i16 @bitVectorRead(ptr noundef %0, i32 noundef %1) #0 {
  %3 = alloca i16, align 2
  %4 = alloca ptr, align 8
  %5 = alloca i32, align 4
  %6 = alloca i32, align 4
  %7 = alloca i32, align 4
  %8 = alloca i16, align 2
  store ptr %0, ptr %4, align 8
  store i32 %1, ptr %5, align 4
  %9 = load ptr, ptr %4, align 8
  %10 = icmp eq ptr %9, null
  br i1 %10, label %11, label %12

11:                                               ; preds = %2
  store i16 0, ptr %3, align 2
  br label %28

12:                                               ; preds = %2
  %13 = load i32, ptr %5, align 4
  %14 = ashr i32 %13, 6
  store i32 %14, ptr %6, align 4
  %15 = load i32, ptr %5, align 4
  %16 = and i32 %15, 63
  store i32 %16, ptr %7, align 4
  %17 = load ptr, ptr %4, align 8
  %18 = load i32, ptr %6, align 4
  %19 = sext i32 %18 to i64
  %20 = getelementptr inbounds i64, ptr %17, i64 %19
  %21 = load i64, ptr %20, align 8
  %22 = load i32, ptr %7, align 4
  %23 = zext i32 %22 to i64
  %24 = ashr i64 %21, %23
  %25 = and i64 %24, 1
  %26 = trunc i64 %25 to i16
  store i16 %26, ptr %8, align 2
  %27 = load i16, ptr %8, align 2
  store i16 %27, ptr %3, align 2
  br label %28

28:                                               ; preds = %12, %11
  %29 = load i16, ptr %3, align 2
  ret i16 %29
}

; Function Attrs: nounwind uwtable
define internal ptr @bitVectorAlloc(i32 noundef %0) #0 {
  %2 = alloca ptr, align 8
  %3 = alloca i32, align 4
  %4 = alloca i32, align 4
  %5 = alloca ptr, align 8
  store i32 %0, ptr %3, align 4
  %6 = load i32, ptr %3, align 4
  %7 = sub nsw i32 %6, 1
  %8 = sext i32 %7 to i64
  %9 = udiv i64 %8, 64
  %10 = add i64 %9, 1
  %11 = trunc i64 %10 to i32
  store i32 %11, ptr %4, align 4
  %12 = load i32, ptr %4, align 4
  %13 = sext i32 %12 to i64
  %14 = mul i64 8, %13
  %15 = call noalias ptr @malloc(i64 noundef %14) #5
  store ptr %15, ptr %5, align 8
  %16 = load ptr, ptr %5, align 8
  %17 = icmp eq ptr %16, null
  br i1 %17, label %18, label %19

18:                                               ; preds = %1
  store ptr null, ptr %2, align 8
  br label %25

19:                                               ; preds = %1
  %20 = load ptr, ptr %5, align 8
  %21 = load i32, ptr %4, align 4
  %22 = sext i32 %21 to i64
  %23 = mul i64 %22, 8
  call void @llvm.memset.p0.i64(ptr align 8 %20, i8 0, i64 %23, i1 false)
  %24 = load ptr, ptr %5, align 8
  store ptr %24, ptr %2, align 8
  br label %25

25:                                               ; preds = %19, %18
  %26 = load ptr, ptr %2, align 8
  ret ptr %26
}

; Function Attrs: nounwind uwtable
define internal i32 @sentinelp(i32 noundef %0, i32 noundef %1) #0 {
  %3 = alloca i32, align 4
  %4 = alloca i32, align 4
  store i32 %0, ptr %3, align 4
  store i32 %1, ptr %4, align 4
  %5 = load i32, ptr %3, align 4
  %6 = icmp eq i32 %5, 0
  br i1 %6, label %7, label %10

7:                                                ; preds = %2
  %8 = load i32, ptr %4, align 4
  %9 = icmp eq i32 %8, 0
  br label %10

10:                                               ; preds = %7, %2
  %11 = phi i1 [ false, %2 ], [ %9, %7 ]
  %12 = zext i1 %11 to i32
  ret i32 %12
}

; Function Attrs: nounwind uwtable
define internal ptr @tlcInfoAlloc() #0 {
  %1 = alloca ptr, align 8
  %2 = alloca ptr, align 8
  %3 = call noalias ptr @malloc(i64 noundef 24) #5
  store ptr %3, ptr %2, align 8
  %4 = load ptr, ptr %2, align 8
  %5 = icmp eq ptr %4, null
  br i1 %5, label %6, label %7

6:                                                ; preds = %0
  store ptr null, ptr %1, align 8
  br label %15

7:                                                ; preds = %0
  %8 = load ptr, ptr %2, align 8
  %9 = getelementptr inbounds %struct.DdTlcInfo, ptr %8, i32 0, i32 0
  store ptr null, ptr %9, align 8
  %10 = load ptr, ptr %2, align 8
  %11 = getelementptr inbounds %struct.DdTlcInfo, ptr %10, i32 0, i32 1
  store ptr null, ptr %11, align 8
  %12 = load ptr, ptr %2, align 8
  %13 = getelementptr inbounds %struct.DdTlcInfo, ptr %12, i32 0, i32 2
  store i32 0, ptr %13, align 8
  %14 = load ptr, ptr %2, align 8
  store ptr %14, ptr %1, align 8
  br label %15

15:                                               ; preds = %7, %6
  %16 = load ptr, ptr %1, align 8
  ret ptr %16
}

; Function Attrs: nounwind uwtable
define internal ptr @computeClausesWithUniverse(ptr noundef %0, i32 noundef %1, i16 noundef signext %2) #0 {
  %4 = alloca ptr, align 8
  %5 = alloca ptr, align 8
  %6 = alloca i32, align 4
  %7 = alloca i16, align 2
  %8 = alloca ptr, align 8
  %9 = alloca ptr, align 8
  %10 = alloca ptr, align 8
  %11 = alloca ptr, align 8
  %12 = alloca ptr, align 8
  %13 = alloca i32, align 4
  store ptr %0, ptr %5, align 8
  store i32 %1, ptr %6, align 4
  store i16 %2, ptr %7, align 2
  %14 = load ptr, ptr %5, align 8
  %15 = getelementptr inbounds %struct.DdTlcInfo, ptr %14, i32 0, i32 0
  %16 = load ptr, ptr %15, align 8
  store ptr %16, ptr %8, align 8
  %17 = load ptr, ptr %5, align 8
  %18 = getelementptr inbounds %struct.DdTlcInfo, ptr %17, i32 0, i32 1
  %19 = load ptr, ptr %18, align 8
  store ptr %19, ptr %9, align 8
  store ptr null, ptr %10, align 8
  store ptr null, ptr %11, align 8
  store ptr null, ptr %12, align 8
  %20 = call ptr @tlcInfoAlloc()
  store ptr %20, ptr %12, align 8
  %21 = load ptr, ptr %12, align 8
  %22 = icmp eq ptr %21, null
  br i1 %22, label %23, label %24

23:                                               ; preds = %3
  br label %152

24:                                               ; preds = %3
  store i32 0, ptr %13, align 4
  br label %25

25:                                               ; preds = %41, %24
  %26 = load ptr, ptr %8, align 8
  %27 = load i32, ptr %13, align 4
  %28 = sext i32 %27 to i64
  %29 = getelementptr inbounds i32, ptr %26, i64 %28
  %30 = load i32, ptr %29, align 4
  %31 = load ptr, ptr %8, align 8
  %32 = load i32, ptr %13, align 4
  %33 = add nsw i32 %32, 1
  %34 = sext i32 %33 to i64
  %35 = getelementptr inbounds i32, ptr %31, i64 %34
  %36 = load i32, ptr %35, align 4
  %37 = call i32 @sentinelp(i32 noundef %30, i32 noundef %36)
  %38 = icmp ne i32 %37, 0
  %39 = xor i1 %38, true
  br i1 %39, label %40, label %44

40:                                               ; preds = %25
  br label %41

41:                                               ; preds = %40
  %42 = load i32, ptr %13, align 4
  %43 = add nsw i32 %42, 2
  store i32 %43, ptr %13, align 4
  br label %25, !llvm.loop !20

44:                                               ; preds = %25
  %45 = load i32, ptr %13, align 4
  %46 = add nsw i32 %45, 4
  %47 = sext i32 %46 to i64
  %48 = mul i64 4, %47
  %49 = call noalias ptr @malloc(i64 noundef %48) #5
  store ptr %49, ptr %10, align 8
  %50 = load ptr, ptr %10, align 8
  %51 = icmp eq ptr %50, null
  br i1 %51, label %52, label %53

52:                                               ; preds = %44
  br label %152

53:                                               ; preds = %44
  %54 = load i32, ptr %13, align 4
  %55 = add nsw i32 %54, 4
  %56 = call ptr @bitVectorAlloc(i32 noundef %55)
  store ptr %56, ptr %11, align 8
  %57 = load ptr, ptr %11, align 8
  %58 = icmp eq ptr %57, null
  br i1 %58, label %59, label %60

59:                                               ; preds = %53
  br label %152

60:                                               ; preds = %53
  %61 = load ptr, ptr %10, align 8
  %62 = load ptr, ptr %12, align 8
  %63 = getelementptr inbounds %struct.DdTlcInfo, ptr %62, i32 0, i32 0
  store ptr %61, ptr %63, align 8
  %64 = load ptr, ptr %11, align 8
  %65 = load ptr, ptr %12, align 8
  %66 = getelementptr inbounds %struct.DdTlcInfo, ptr %65, i32 0, i32 1
  store ptr %64, ptr %66, align 8
  store i32 0, ptr %13, align 4
  br label %67

67:                                               ; preds = %115, %60
  %68 = load ptr, ptr %8, align 8
  %69 = load i32, ptr %13, align 4
  %70 = sext i32 %69 to i64
  %71 = getelementptr inbounds i32, ptr %68, i64 %70
  %72 = load i32, ptr %71, align 4
  %73 = load ptr, ptr %8, align 8
  %74 = load i32, ptr %13, align 4
  %75 = add nsw i32 %74, 1
  %76 = sext i32 %75 to i64
  %77 = getelementptr inbounds i32, ptr %73, i64 %76
  %78 = load i32, ptr %77, align 4
  %79 = call i32 @sentinelp(i32 noundef %72, i32 noundef %78)
  %80 = icmp ne i32 %79, 0
  %81 = xor i1 %80, true
  br i1 %81, label %82, label %118

82:                                               ; preds = %67
  %83 = load ptr, ptr %8, align 8
  %84 = load i32, ptr %13, align 4
  %85 = sext i32 %84 to i64
  %86 = getelementptr inbounds i32, ptr %83, i64 %85
  %87 = load i32, ptr %86, align 4
  %88 = load ptr, ptr %10, align 8
  %89 = load i32, ptr %13, align 4
  %90 = sext i32 %89 to i64
  %91 = getelementptr inbounds i32, ptr %88, i64 %90
  store i32 %87, ptr %91, align 4
  %92 = load ptr, ptr %8, align 8
  %93 = load i32, ptr %13, align 4
  %94 = add nsw i32 %93, 1
  %95 = sext i32 %94 to i64
  %96 = getelementptr inbounds i32, ptr %92, i64 %95
  %97 = load i32, ptr %96, align 4
  %98 = load ptr, ptr %10, align 8
  %99 = load i32, ptr %13, align 4
  %100 = add nsw i32 %99, 1
  %101 = sext i32 %100 to i64
  %102 = getelementptr inbounds i32, ptr %98, i64 %101
  store i32 %97, ptr %102, align 4
  %103 = load ptr, ptr %11, align 8
  %104 = load i32, ptr %13, align 4
  %105 = load ptr, ptr %9, align 8
  %106 = load i32, ptr %13, align 4
  %107 = call signext i16 @bitVectorRead(ptr noundef %105, i32 noundef %106)
  call void @bitVectorSet(ptr noundef %103, i32 noundef %104, i16 noundef signext %107)
  %108 = load ptr, ptr %11, align 8
  %109 = load i32, ptr %13, align 4
  %110 = add nsw i32 %109, 1
  %111 = load ptr, ptr %9, align 8
  %112 = load i32, ptr %13, align 4
  %113 = add nsw i32 %112, 1
  %114 = call signext i16 @bitVectorRead(ptr noundef %111, i32 noundef %113)
  call void @bitVectorSet(ptr noundef %108, i32 noundef %110, i16 noundef signext %114)
  br label %115

115:                                              ; preds = %82
  %116 = load i32, ptr %13, align 4
  %117 = add nsw i32 %116, 2
  store i32 %117, ptr %13, align 4
  br label %67, !llvm.loop !21

118:                                              ; preds = %67
  %119 = load i32, ptr %6, align 4
  %120 = load ptr, ptr %10, align 8
  %121 = load i32, ptr %13, align 4
  %122 = sext i32 %121 to i64
  %123 = getelementptr inbounds i32, ptr %120, i64 %122
  store i32 %119, ptr %123, align 4
  %124 = load ptr, ptr %11, align 8
  %125 = load i32, ptr %13, align 4
  %126 = load i16, ptr %7, align 2
  call void @bitVectorSet(ptr noundef %124, i32 noundef %125, i16 noundef signext %126)
  %127 = load i32, ptr %13, align 4
  %128 = add nsw i32 %127, 1
  store i32 %128, ptr %13, align 4
  %129 = load ptr, ptr %10, align 8
  %130 = load i32, ptr %13, align 4
  %131 = sext i32 %130 to i64
  %132 = getelementptr inbounds i32, ptr %129, i64 %131
  store i32 2147483647, ptr %132, align 4
  %133 = load ptr, ptr %11, align 8
  %134 = load i32, ptr %13, align 4
  call void @bitVectorSet(ptr noundef %133, i32 noundef %134, i16 noundef signext 1)
  %135 = load i32, ptr %13, align 4
  %136 = add nsw i32 %135, 1
  store i32 %136, ptr %13, align 4
  %137 = load ptr, ptr %10, align 8
  %138 = load i32, ptr %13, align 4
  %139 = sext i32 %138 to i64
  %140 = getelementptr inbounds i32, ptr %137, i64 %139
  store i32 0, ptr %140, align 4
  %141 = load ptr, ptr %10, align 8
  %142 = load i32, ptr %13, align 4
  %143 = add nsw i32 %142, 1
  %144 = sext i32 %143 to i64
  %145 = getelementptr inbounds i32, ptr %141, i64 %144
  store i32 0, ptr %145, align 4
  %146 = load ptr, ptr %11, align 8
  %147 = load i32, ptr %13, align 4
  call void @bitVectorSet(ptr noundef %146, i32 noundef %147, i16 noundef signext 0)
  %148 = load ptr, ptr %11, align 8
  %149 = load i32, ptr %13, align 4
  %150 = add nsw i32 %149, 1
  call void @bitVectorSet(ptr noundef %148, i32 noundef %150, i16 noundef signext 0)
  %151 = load ptr, ptr %12, align 8
  store ptr %151, ptr %4, align 8
  br label %168

152:                                              ; preds = %59, %52, %23
  %153 = load ptr, ptr %10, align 8
  %154 = icmp ne ptr %153, null
  br i1 %154, label %155, label %162

155:                                              ; preds = %152
  %156 = load ptr, ptr %10, align 8
  %157 = icmp ne ptr %156, null
  br i1 %157, label %158, label %160

158:                                              ; preds = %155
  %159 = load ptr, ptr %10, align 8
  call void @free(ptr noundef %159) #6
  store ptr null, ptr %10, align 8
  br label %161

160:                                              ; preds = %155
  br label %161

161:                                              ; preds = %160, %158
  br label %162

162:                                              ; preds = %161, %152
  %163 = load ptr, ptr %12, align 8
  %164 = icmp ne ptr %163, null
  br i1 %164, label %165, label %167

165:                                              ; preds = %162
  %166 = load ptr, ptr %12, align 8
  call void @Cudd_tlcInfoFree(ptr noundef %166)
  br label %167

167:                                              ; preds = %165, %162
  store ptr null, ptr %4, align 8
  br label %168

168:                                              ; preds = %167, %118
  %169 = load ptr, ptr %4, align 8
  ret ptr %169
}