; Function Attrs: nounwind memory(readwrite, argmem: read) uwtable
define internal fastcc noalias noundef ptr @computeClausesWithUniverse(ptr readonly captures(none) %.0.val, ptr readonly %.8.val, i32 noundef %0, i16 noundef signext range(i16 0, 2) %1) unnamed_addr #8 {
  %3 = tail call noalias dereferenceable_or_null(24) ptr @malloc(i64 noundef 24) #12
  %4 = icmp eq ptr %3, null
  br i1 %4, label %.thread.thread, label %tlcInfoAlloc.exit

tlcInfoAlloc.exit:                                ; preds = %2
  tail call void @llvm.memset.p0.i64(ptr noundef nonnull align 8 dereferenceable(20) %3, i8 0, i64 20, i1 false)
  br label %5

5:                                                ; preds = %5, %tlcInfoAlloc.exit
  %indvars.iv = phi i64 [ %indvars.iv.next, %5 ], [ 0, %tlcInfoAlloc.exit ]
  %6 = getelementptr inbounds nuw i32, ptr %.0.val, i64 %indvars.iv
  %7 = load i32, ptr %6, align 4
  %8 = or disjoint i64 %indvars.iv, 1
  %9 = getelementptr inbounds nuw i32, ptr %.0.val, i64 %8
  %10 = load i32, ptr %9, align 4
  %11 = or i32 %10, %7
  %.not = icmp eq i32 %11, 0
  %indvars.iv.next = add nuw nsw i64 %indvars.iv, 2
  br i1 %.not, label %12, label %5, !llvm.loop !20

12:                                               ; preds = %5
  %13 = shl i64 %indvars.iv, 2
  %14 = add i64 %13, 16
  %15 = and i64 %14, 17179869176
  %16 = tail call noalias ptr @malloc(i64 noundef %15) #12
  %17 = icmp eq ptr %16, null
  br i1 %17, label %Cudd_tlcInfoFree.exit, label %18

18:                                               ; preds = %12
  %19 = add nuw i64 %indvars.iv, 3
  %20 = lshr i64 %19, 3
  %21 = and i64 %20, 268435448
  %22 = add nuw nsw i64 %21, 8
  %calloc.i = tail call noalias noundef ptr @calloc(i64 1, i64 %22)
  %23 = icmp eq ptr %calloc.i, null
  br i1 %23, label %130, label %24

24:                                               ; preds = %18
  store ptr %16, ptr %3, align 8
  %25 = getelementptr inbounds nuw i8, ptr %3, i64 8
  store ptr %calloc.i, ptr %25, align 8
  %26 = load i32, ptr %.0.val, align 4
  %27 = getelementptr inbounds nuw i8, ptr %.0.val, i64 4
  %28 = load i32, ptr %27, align 4
  %29 = or i32 %28, %26
  %.not36 = icmp eq i32 %29, 0
  br i1 %.not36, label %._crit_edge, label %.lr.ph

.lr.ph:                                           ; preds = %24
  %30 = icmp eq ptr %.8.val, null
  br i1 %30, label %bitVectorRead.exit.us, label %bitVectorRead.exit

bitVectorRead.exit.us:                            ; preds = %.lr.ph, %bitVectorRead.exit.us
  %indvars.iv27 = phi i64 [ %indvars.iv.next28, %bitVectorRead.exit.us ], [ 0, %.lr.ph ]
  %31 = phi i32 [ %51, %bitVectorRead.exit.us ], [ %28, %.lr.ph ]
  %32 = phi i32 [ %48, %bitVectorRead.exit.us ], [ %26, %.lr.ph ]
  %33 = or disjoint i64 %indvars.iv27, 1
  %34 = getelementptr inbounds nuw i32, ptr %16, i64 %indvars.iv27
  store i32 %32, ptr %34, align 4
  %35 = getelementptr inbounds nuw i32, ptr %16, i64 %33
  store i32 %31, ptr %35, align 4
  %36 = lshr i64 %indvars.iv27, 6
  %37 = and i64 %indvars.iv27, 62
  %38 = and i64 %indvars.iv27, 62
  %39 = shl nuw nsw i64 1, %38
  %40 = and i64 %36, 67108863
  %41 = getelementptr inbounds nuw i64, ptr %calloc.i, i64 %40
  %42 = load i64, ptr %41, align 8
  %43 = shl nuw i64 2, %37
  %44 = or disjoint i64 %39, %43
  %45 = xor i64 %44, -1
  %46 = and i64 %42, %45
  store i64 %46, ptr %41, align 8
  %indvars.iv.next28 = add nuw nsw i64 %indvars.iv27, 2
  %47 = getelementptr inbounds nuw i32, ptr %.0.val, i64 %indvars.iv.next28
  %48 = load i32, ptr %47, align 4
  %49 = or disjoint i64 %indvars.iv.next28, 1
  %50 = getelementptr inbounds nuw i32, ptr %.0.val, i64 %49
  %51 = load i32, ptr %50, align 4
  %52 = or i32 %51, %48
  %.not3.us = icmp eq i32 %52, 0
  br i1 %.not3.us, label %._crit_edge.loopexit, label %bitVectorRead.exit.us, !llvm.loop !21

bitVectorRead.exit:                               ; preds = %.lr.ph, %bitVectorRead.exit
  %indvars.iv24 = phi i64 [ %indvars.iv.next25, %bitVectorRead.exit ], [ 0, %.lr.ph ]
  %53 = phi i32 [ %85, %bitVectorRead.exit ], [ %28, %.lr.ph ]
  %54 = phi i32 [ %82, %bitVectorRead.exit ], [ %26, %.lr.ph ]
  %55 = or disjoint i64 %indvars.iv24, 1
  %56 = getelementptr inbounds nuw i32, ptr %16, i64 %indvars.iv24
  store i32 %54, ptr %56, align 4
  %57 = getelementptr inbounds nuw i32, ptr %16, i64 %55
  store i32 %53, ptr %57, align 4
  %58 = lshr i64 %indvars.iv24, 6
  %59 = and i64 %indvars.iv24, 62
  %60 = and i64 %58, 67108863
  %61 = getelementptr inbounds nuw i64, ptr %.8.val, i64 %60
  %62 = load i64, ptr %61, align 8
  %63 = lshr i64 %62, %59
  %64 = and i64 %63, 1
  %65 = shl nuw nsw i64 1, %59
  %66 = xor i64 %65, -1
  %67 = getelementptr inbounds nuw i64, ptr %calloc.i, i64 %60
  %68 = load i64, ptr %67, align 8
  %69 = and i64 %68, %66
  %70 = shl nuw nsw i64 %64, %59
  %71 = or i64 %69, %70
  %72 = and i64 %indvars.iv24, 62
  %73 = or disjoint i64 %72, 1
  %74 = lshr i64 %62, %73
  %75 = and i64 %74, 1
  %76 = shl nuw i64 2, %72
  %77 = xor i64 %76, -1
  %78 = and i64 %71, %77
  %79 = shl nuw i64 %75, %73
  %80 = or i64 %78, %79
  store i64 %80, ptr %67, align 8
  %indvars.iv.next25 = add nuw nsw i64 %indvars.iv24, 2
  %81 = getelementptr inbounds nuw i32, ptr %.0.val, i64 %indvars.iv.next25
  %82 = load i32, ptr %81, align 4
  %83 = or disjoint i64 %indvars.iv.next25, 1
  %84 = getelementptr inbounds nuw i32, ptr %.0.val, i64 %83
  %85 = load i32, ptr %84, align 4
  %86 = or i32 %85, %82
  %.not3 = icmp eq i32 %86, 0
  br i1 %.not3, label %._crit_edge.loopexit14, label %bitVectorRead.exit, !llvm.loop !21

._crit_edge.loopexit:                             ; preds = %bitVectorRead.exit.us
  %87 = trunc nuw nsw i64 %indvars.iv.next28 to i32
  br label %._crit_edge

._crit_edge.loopexit14:                           ; preds = %bitVectorRead.exit
  %88 = trunc nuw nsw i64 %indvars.iv.next25 to i32
  br label %._crit_edge

._crit_edge:                                      ; preds = %._crit_edge.loopexit14, %._crit_edge.loopexit, %24
  %.1.lcssa = phi i32 [ 0, %24 ], [ %87, %._crit_edge.loopexit ], [ %88, %._crit_edge.loopexit14 ]
  %.lcssa5 = phi i64 [ 0, %24 ], [ %indvars.iv.next28, %._crit_edge.loopexit ], [ %indvars.iv.next25, %._crit_edge.loopexit14 ]
  %.lcssa = phi i64 [ 1, %24 ], [ %49, %._crit_edge.loopexit ], [ %83, %._crit_edge.loopexit14 ]
  %89 = getelementptr inbounds nuw i32, ptr %16, i64 %.lcssa5
  store i32 %0, ptr %89, align 4
  %90 = lshr i32 %.1.lcssa, 6
  %91 = and i32 %.1.lcssa, 62
  %92 = zext nneg i32 %91 to i64
  %93 = shl nuw nsw i64 1, %92
  %94 = xor i64 %93, -1
  %95 = zext nneg i32 %90 to i64
  %96 = getelementptr inbounds nuw i64, ptr %calloc.i, i64 %95
  %97 = load i64, ptr %96, align 8
  %98 = and i64 %97, %94
  %99 = zext nneg i16 %1 to i64
  %100 = shl nuw nsw i64 %99, %92
  %101 = or i64 %98, %100
  %102 = getelementptr inbounds nuw i32, ptr %16, i64 %.lcssa
  store i32 2147483647, ptr %102, align 4
  %103 = and i64 %.lcssa, 63
  %104 = shl nuw i64 1, %103
  %105 = or i64 %101, %104
  store i64 %105, ptr %96, align 8
  %106 = add nuw nsw i32 %.1.lcssa, 2
  %107 = zext nneg i32 %106 to i64
  %108 = getelementptr inbounds nuw i32, ptr %16, i64 %107
  store i32 0, ptr %108, align 4
  %109 = add nuw nsw i32 %.1.lcssa, 3
  %110 = zext nneg i32 %109 to i64
  %111 = getelementptr inbounds nuw i32, ptr %16, i64 %110
  store i32 0, ptr %111, align 4
  %112 = lshr i32 %106, 6
  %113 = and i32 %106, 62
  %114 = zext nneg i32 %113 to i64
  %115 = shl nuw nsw i64 1, %114
  %116 = xor i64 %115, -1
  %117 = zext nneg i32 %112 to i64
  %118 = getelementptr inbounds nuw i64, ptr %calloc.i, i64 %117
  %119 = load i64, ptr %118, align 8
  %120 = and i64 %119, %116
  store i64 %120, ptr %118, align 8
  %121 = lshr i32 %109, 6
  %122 = and i32 %109, 63
  %123 = zext nneg i32 %122 to i64
  %124 = shl nuw i64 1, %123
  %125 = xor i64 %124, -1
  %126 = zext nneg i32 %121 to i64
  %127 = getelementptr inbounds nuw i64, ptr %calloc.i, i64 %126
  %128 = load i64, ptr %127, align 8
  %129 = and i64 %128, %125
  store i64 %129, ptr %127, align 8
  br label %.thread.thread

130:                                              ; preds = %18
  tail call void @free(ptr noundef nonnull %16) #11
  br label %Cudd_tlcInfoFree.exit

Cudd_tlcInfoFree.exit:                            ; preds = %130, %12
  tail call void @free(ptr noundef nonnull %3) #11
  br label %.thread.thread

.thread.thread:                                   ; preds = %2, %Cudd_tlcInfoFree.exit, %._crit_edge
  %.065 = phi ptr [ %3, %._crit_edge ], [ null, %Cudd_tlcInfoFree.exit ], [ null, %2 ]
  ret ptr %.065
}